target datalayout = "e-m:e-p270:32:32-p271:32:32-p272:64:64-i64:64-i128:128-f80:128-n8:16:32:64-S128"
target triple = "x86_64-unknown-linux-gnu"

%"class.v8::LocalBase" = type { %"class.v8::IndirectHandleBase" }
%"class.v8::IndirectHandleBase" = type { ptr }
%"class.v8::Local" = type { %"class.v8::LocalBase" }
%"class.v8::Local.256" = type { %"class.v8::LocalBase.257" }
%"class.v8::LocalBase.257" = type { %"class.v8::IndirectHandleBase" }
%"class.node::MemoryRetainer" = type { ptr }
%"class.node::AliasedBufferBase.12" = type { %"class.node::MemoryRetainer", ptr, i64, i64, ptr, %"class.v8::Global.13", ptr }
%"class.v8::Global.13" = type { %"class.v8::PersistentBase.14" }
%"class.v8::PersistentBase.14" = type { %"class.v8::IndirectHandleBase" }
%"class.node::process::BindingData" = type { %"class.node::SnapshotableObject.base", %"class.node::AliasedBufferBase.12", ptr }
%"class.node::SnapshotableObject.base" = type <{ %"class.node::BaseObject", i8 }>
%"class.node::BaseObject" = type { %"class.node::MemoryRetainer", %"class.v8::Global.258", ptr, ptr }
%"class.v8::Global.258" = type { %"class.v8::PersistentBase.259" }
%"class.v8::PersistentBase.259" = type { %"class.v8::IndirectHandleBase" }
%"class.node::AliasedBufferBase<unsigned int, v8::Uint32Array>::Reference" = type { ptr, i64 }

; Function Attrs: mustprogress nounwind uwtable
define linkonce_odr dso_local void @_ZN4node17AliasedBufferBaseIjN2v811Uint32ArrayEE8SetValueEmj(ptr noundef nonnull align 8 dereferenceable(56) %this, i64 noundef %index, i32 noundef %value) #4 comdat align 2 {
entry:
  %this.addr = alloca ptr, align 8
  %index.addr = alloca i64, align 8
  %value.addr = alloca i32, align 4
  store ptr %this, ptr %this.addr, align 8
  store i64 %index, ptr %index.addr, align 8
  store i32 %value, ptr %value.addr, align 4
  %this1 = load ptr, ptr %this.addr, align 8
  %0 = load i32, ptr %value.addr, align 4
  %buffer_ = getelementptr inbounds %"class.node::AliasedBufferBase.12", ptr %this1, i32 0, i32 4
  %1 = load ptr, ptr %buffer_, align 8
  %2 = load i64, ptr %index.addr, align 8
  %arrayidx = getelementptr inbounds i32, ptr %1, i64 %2
  store i32 %0, ptr %arrayidx, align 4
  ret void
}

; Function Attrs: mustprogress nounwind uwtable
define linkonce_odr dso_local void @_ZN4node17AliasedBufferBaseIjN2v811Uint32ArrayEE9ReferenceC2EPS3_m(ptr noundef nonnull align 8 dereferenceable(16) %this, ptr noundef %aliased_buffer, i64 noundef %index) unnamed_addr #4 comdat align 2 {
entry:
  %this.addr = alloca ptr, align 8
  %aliased_buffer.addr = alloca ptr, align 8
  %index.addr = alloca i64, align 8
  store ptr %this, ptr %this.addr, align 8
  store ptr %aliased_buffer, ptr %aliased_buffer.addr, align 8
  store i64 %index, ptr %index.addr, align 8
  %this1 = load ptr, ptr %this.addr, align 8
  %aliased_buffer_ = getelementptr inbounds %"class.node::AliasedBufferBase<unsigned int, v8::Uint32Array>::Reference", ptr %this1, i32 0, i32 0
  %0 = load ptr, ptr %aliased_buffer.addr, align 8
  store ptr %0, ptr %aliased_buffer_, align 8
  %index_ = getelementptr inbounds %"class.node::AliasedBufferBase<unsigned int, v8::Uint32Array>::Reference", ptr %this1, i32 0, i32 1
  %1 = load i64, ptr %index.addr, align 8
  store i64 %1, ptr %index_, align 8
  ret void
}

; Function Attrs: mustprogress nounwind uwtable
define linkonce_odr dso_local noundef nonnull align 8 dereferenceable(16) ptr @_ZN4node17AliasedBufferBaseIjN2v811Uint32ArrayEE9ReferenceaSERKj(ptr noundef nonnull align 8 dereferenceable(16) %this, ptr noundef nonnull align 4 dereferenceable(4) %val) #4 comdat align 2 {
entry:
  %this.addr = alloca ptr, align 8
  %val.addr = alloca ptr, align 8
  store ptr %this, ptr %this.addr, align 8
  store ptr %val, ptr %val.addr, align 8
  %this1 = load ptr, ptr %this.addr, align 8
  %aliased_buffer_ = getelementptr inbounds %"class.node::AliasedBufferBase<unsigned int, v8::Uint32Array>::Reference", ptr %this1, i32 0, i32 0
  %0 = load ptr, ptr %aliased_buffer_, align 8
  %index_ = getelementptr inbounds %"class.node::AliasedBufferBase<unsigned int, v8::Uint32Array>::Reference", ptr %this1, i32 0, i32 1
  %1 = load i64, ptr %index_, align 8
  %2 = load ptr, ptr %val.addr, align 8
  %3 = load i32, ptr %2, align 4
  call void @_ZN4node17AliasedBufferBaseIjN2v811Uint32ArrayEE8SetValueEmj(ptr noundef nonnull align 8 dereferenceable(56) %0, i64 noundef %1, i32 noundef %3)
  ret ptr %this1
}

; Function Attrs: mustprogress nounwind uwtable
define linkonce_odr dso_local void @_ZN4node17AliasedBufferBaseIjN2v811Uint32ArrayEEixEm(ptr noalias sret(%"class.node::AliasedBufferBase<unsigned int, v8::Uint32Array>::Reference") align 8 %agg.result, ptr noundef nonnull align 8 dereferenceable(56) %this, i64 noundef %index) #4 comdat align 2 {
entry:
  %result.ptr = alloca ptr, align 8
  %this.addr = alloca ptr, align 8
  %index.addr = alloca i64, align 8
  store ptr %agg.result, ptr %result.ptr, align 8
  store ptr %this, ptr %this.addr, align 8
  store i64 %index, ptr %index.addr, align 8
  %this1 = load ptr, ptr %this.addr, align 8
  %0 = load i64, ptr %index.addr, align 8
  call void @_ZN4node17AliasedBufferBaseIjN2v811Uint32ArrayEE9ReferenceC2EPS3_m(ptr noundef nonnull align 8 dereferenceable(16) %agg.result, ptr noundef %this1, i64 noundef %0)
  ret void
}

; Function Attrs: mustprogress nounwind uwtable
define linkonce_odr dso_local noundef ptr @_ZN4node10BaseObject12FromJSObjectEN2v85LocalINS1_5ValueEEE(ptr %value.coerce) #4 comdat align 2 {
entry:
  %this.addr.i36 = alloca ptr, align 8
  %other.addr.i37 = alloca ptr, align 8
  %this.addr.i34 = alloca ptr, align 8
  %other.addr.i = alloca ptr, align 8
  %retval.i33 = alloca %"class.v8::Local.256", align 8
  %that.i = alloca %"class.v8::Local", align 8
  %ref.tmp.i = alloca %"class.v8::LocalBase.257", align 8
  %slot.addr.i = alloca ptr, align 8
  %this.addr.i.i = alloca ptr, align 8
  %this.addr.i31 = alloca ptr, align 8
  %instance_type.addr.i = alloca i32, align 4
  %value.addr.i = alloca ptr, align 8
  %heap_object_ptr.addr.i.i = alloca i64, align 8
  %offset.addr.i.i = alloca i32, align 4
  %addr.i.i = alloca i64, align 8
  %isolate.addr.i = alloca ptr, align 8
  %heap_object_ptr.addr.i28 = alloca i64, align 8
  %offset.addr.i29 = alloca i32, align 4
  %obj.addr.i27 = alloca i64, align 8
  %heap_object_ptr.addr.i21 = alloca i64, align 8
  %offset.addr.i22 = alloca i32, align 4
  %addr.i23 = alloca i64, align 8
  %heap_object_ptr.addr.i17 = alloca i64, align 8
  %offset.addr.i18 = alloca i32, align 4
  %addr.i = alloca i64, align 8
  %heap_object_ptr.addr.i = alloca i64, align 8
  %offset.addr.i = alloca i32, align 4
  %obj.addr.i = alloca i64, align 8
  %map.i = alloca i64, align 8
  %retval.i11 = alloca ptr, align 8
  %this.addr.i12 = alloca ptr, align 8
  %index.addr.i = alloca i32, align 4
  %obj.i = alloca i64, align 8
  %instance_type.i = alloca i32, align 4
  %offset.i = alloca i32, align 4
  %isolate.i = alloca ptr, align 8
  %value.i = alloca i64, align 8
  %retval.i = alloca %"class.v8::Local.256", align 8
  %this.addr.i8 = alloca ptr, align 8
  %agg.tmp.i = alloca %"class.v8::Local", align 8
  %this.addr.i = alloca ptr, align 8
  %value = alloca %"class.v8::Local", align 8
  %obj = alloca %"class.v8::Local.256", align 8
  %coerce.dive = getelementptr inbounds %"class.v8::Local", ptr %value, i32 0, i32 0
  %coerce.dive1 = getelementptr inbounds %"class.v8::LocalBase", ptr %coerce.dive, i32 0, i32 0
  %coerce.dive2 = getelementptr inbounds %"class.v8::IndirectHandleBase", ptr %coerce.dive1, i32 0, i32 0
  store ptr %value.coerce, ptr %coerce.dive2, align 8
  store ptr %value, ptr %this.addr.i8, align 8
  %this1.i9 = load ptr, ptr %this.addr.i8, align 8
  call void @llvm.memcpy.p0.p0.i64(ptr align 8 %agg.tmp.i, ptr align 8 %this1.i9, i64 8, i1 false)
  %0 = load ptr, ptr %agg.tmp.i, align 8
  store ptr %0, ptr %that.i, align 8
  store ptr %ref.tmp.i, ptr %this.addr.i34, align 8
  store ptr %that.i, ptr %other.addr.i, align 8
  %this1.i35 = load ptr, ptr %this.addr.i34, align 8
  %1 = load ptr, ptr %other.addr.i, align 8
  call void @llvm.memcpy.p0.p0.i64(ptr align 8 %this1.i35, ptr align 8 %1, i64 8, i1 false)
  store ptr %retval.i33, ptr %this.addr.i36, align 8
  store ptr %ref.tmp.i, ptr %other.addr.i37, align 8
  %this1.i38 = load ptr, ptr %this.addr.i36, align 8
  %2 = load ptr, ptr %other.addr.i37, align 8
  call void @llvm.memcpy.p0.p0.i64(ptr align 8 %this1.i38, ptr align 8 %2, i64 8, i1 false)
  %3 = load ptr, ptr %retval.i33, align 8
  store ptr %3, ptr %retval.i, align 8
  %4 = load ptr, ptr %retval.i, align 8
  %coerce.dive3 = getelementptr inbounds %"class.v8::Local.256", ptr %obj, i32 0, i32 0
  %coerce.dive4 = getelementptr inbounds %"class.v8::LocalBase.257", ptr %coerce.dive3, i32 0, i32 0
  %coerce.dive5 = getelementptr inbounds %"class.v8::IndirectHandleBase", ptr %coerce.dive4, i32 0, i32 0
  store ptr %4, ptr %coerce.dive5, align 8
  store ptr %obj, ptr %this.addr.i, align 8
  %this1.i = load ptr, ptr %this.addr.i, align 8
  store ptr %this1.i, ptr %this.addr.i31, align 8
  %this1.i32 = load ptr, ptr %this.addr.i31, align 8
  store ptr %this1.i32, ptr %this.addr.i.i, align 8
  %this1.i.i = load ptr, ptr %this.addr.i.i, align 8
  %5 = load ptr, ptr %this1.i.i, align 8
  store ptr %5, ptr %slot.addr.i, align 8
  %6 = load ptr, ptr %slot.addr.i, align 8
  store ptr %6, ptr %this.addr.i12, align 8
  store i32 1, ptr %index.addr.i, align 4
  %this1.i13 = load ptr, ptr %this.addr.i12, align 8
  store ptr %this1.i13, ptr %value.addr.i, align 8
  %7 = load ptr, ptr %value.addr.i, align 8
  %8 = load i64, ptr %7, align 8
  store i64 %8, ptr %obj.i, align 8
  %9 = load i64, ptr %obj.i, align 8
  store i64 %9, ptr %obj.addr.i, align 8
  %10 = load i64, ptr %obj.addr.i, align 8
  store i64 %10, ptr %heap_object_ptr.addr.i, align 8
  store i32 0, ptr %offset.addr.i, align 4
  %11 = load i64, ptr %heap_object_ptr.addr.i, align 8
  %12 = load i32, ptr %offset.addr.i, align 4
  store i64 %11, ptr %heap_object_ptr.addr.i21, align 8
  store i32 %12, ptr %offset.addr.i22, align 4
  %13 = load i64, ptr %heap_object_ptr.addr.i21, align 8
  %14 = load i32, ptr %offset.addr.i22, align 4
  %conv.i24 = sext i32 %14 to i64
  %add.i25 = add i64 %13, %conv.i24
  %sub.i26 = sub i64 %add.i25, 1
  store i64 %sub.i26, ptr %addr.i23, align 8
  %15 = load i64, ptr %addr.i23, align 8
  %16 = inttoptr i64 %15 to ptr
  %17 = load i64, ptr %16, align 8
  store i64 %17, ptr %map.i, align 8
  %18 = load i64, ptr %map.i, align 8
  store i64 %18, ptr %heap_object_ptr.addr.i17, align 8
  store i32 12, ptr %offset.addr.i18, align 4
  %19 = load i64, ptr %heap_object_ptr.addr.i17, align 8
  %20 = load i32, ptr %offset.addr.i18, align 4
  %conv.i19 = sext i32 %20 to i64
  %add.i20 = add i64 %19, %conv.i19
  %sub.i = sub i64 %add.i20, 1
  store i64 %sub.i, ptr %addr.i, align 8
  %21 = load i64, ptr %addr.i, align 8
  %22 = inttoptr i64 %21 to ptr
  %23 = load i16, ptr %22, align 2
  %conv.i = zext i16 %23 to i32
  store i32 %conv.i, ptr %instance_type.i, align 4
  %24 = load i32, ptr %instance_type.i, align 4
  store i32 %24, ptr %instance_type.addr.i, align 4
  %25 = load i32, ptr %instance_type.addr.i, align 4
  %cmp.i = icmp eq i32 %25, 1040
  br i1 %cmp.i, label %_ZN2v88internal9Internals20CanHaveInternalFieldEi.exit, label %lor.rhs.i

lor.rhs.i:                                        ; preds = %entry
  %26 = load i32, ptr %instance_type.addr.i, align 4
  %sub.i30 = sub i32 %26, 1057
  %cmp1.i = icmp ule i32 %sub.i30, 1001
  br label %_ZN2v88internal9Internals20CanHaveInternalFieldEi.exit

_ZN2v88internal9Internals20CanHaveInternalFieldEi.exit: ; preds = %lor.rhs.i, %entry
  %27 = phi i1 [ true, %entry ], [ %cmp1.i, %lor.rhs.i ]
  br i1 %27, label %if.then.i, label %if.end.i

if.then.i:                                        ; preds = %_ZN2v88internal9Internals20CanHaveInternalFieldEi.exit
  %28 = load i32, ptr %index.addr.i, align 4
  %mul.i = mul nsw i32 8, %28
  %add.i = add nsw i32 24, %mul.i
  store i32 %add.i, ptr %offset.i, align 4
  %29 = load i64, ptr %obj.i, align 8
  store i64 %29, ptr %obj.addr.i27, align 8
  store ptr null, ptr %isolate.i, align 8
  %30 = load ptr, ptr %isolate.i, align 8
  %31 = load i64, ptr %obj.i, align 8
  %32 = load i32, ptr %offset.i, align 4
  store ptr %30, ptr %isolate.addr.i, align 8
  store i64 %31, ptr %heap_object_ptr.addr.i28, align 8
  store i32 %32, ptr %offset.addr.i29, align 4
  %33 = load i64, ptr %heap_object_ptr.addr.i28, align 8
  %34 = load i32, ptr %offset.addr.i29, align 4
  store i64 %33, ptr %heap_object_ptr.addr.i.i, align 8
  store i32 %34, ptr %offset.addr.i.i, align 4
  %35 = load i64, ptr %heap_object_ptr.addr.i.i, align 8
  %36 = load i32, ptr %offset.addr.i.i, align 4
  %conv.i.i = sext i32 %36 to i64
  %add.i.i = add i64 %35, %conv.i.i
  %sub.i.i = sub i64 %add.i.i, 1
  store i64 %sub.i.i, ptr %addr.i.i, align 8
  %37 = load i64, ptr %addr.i.i, align 8
  %38 = inttoptr i64 %37 to ptr
  %39 = load i64, ptr %38, align 8
  store i64 %39, ptr %value.i, align 8
  %40 = load i64, ptr %value.i, align 8
  %41 = inttoptr i64 %40 to ptr
  store ptr %41, ptr %retval.i11, align 8
  br label %_ZN2v86Object34GetAlignedPointerFromInternalFieldEi.exit

if.end.i:                                         ; preds = %_ZN2v88internal9Internals20CanHaveInternalFieldEi.exit
  %42 = load i32, ptr %index.addr.i, align 4
  %call7.i = call noundef ptr @_ZN2v86Object38SlowGetAlignedPointerFromInternalFieldEi(ptr noundef nonnull align 1 dereferenceable(1) %this1.i13, i32 noundef %42) #3
  store ptr %call7.i, ptr %retval.i11, align 8
  br label %_ZN2v86Object34GetAlignedPointerFromInternalFieldEi.exit

_ZN2v86Object34GetAlignedPointerFromInternalFieldEi.exit: ; preds = %if.end.i, %if.then.i
  %43 = load ptr, ptr %retval.i11, align 8
  ret ptr %43
}

; Function Attrs: mustprogress nounwind uwtable
define dso_local void @_ZN4node7process11BindingData10NumberImplEPS1_(ptr noundef %receiver) #4 align 2 {
entry:
  %receiver.addr = alloca ptr, align 8
  %t = alloca i64, align 8
  %ref.tmp = alloca i32, align 4
  %ref.tmp1 = alloca %"class.node::AliasedBufferBase<unsigned int, v8::Uint32Array>::Reference", align 8
  %ref.tmp3 = alloca i32, align 4
  %ref.tmp6 = alloca %"class.node::AliasedBufferBase<unsigned int, v8::Uint32Array>::Reference", align 8
  %ref.tmp9 = alloca i32, align 4
  %ref.tmp11 = alloca %"class.node::AliasedBufferBase<unsigned int, v8::Uint32Array>::Reference", align 8
  store ptr %receiver, ptr %receiver.addr, align 8
  %call = call i64 @uv_hrtime()
  store i64 %call, ptr %t, align 8
  %0 = load i64, ptr %t, align 8
  %div = udiv i64 %0, 1000000000
  %shr = lshr i64 %div, 32
  %conv = trunc i64 %shr to i32
  store i32 %conv, ptr %ref.tmp, align 4
  %1 = load ptr, ptr %receiver.addr, align 8
  %hrtime_buffer_ = getelementptr inbounds %"class.node::process::BindingData", ptr %1, i32 0, i32 1
  call void @_ZN4node17AliasedBufferBaseIjN2v811Uint32ArrayEEixEm(ptr sret(%"class.node::AliasedBufferBase<unsigned int, v8::Uint32Array>::Reference") align 8 %ref.tmp1, ptr noundef nonnull align 8 dereferenceable(56) %hrtime_buffer_, i64 noundef 0)
  %call2 = call noundef nonnull align 8 dereferenceable(16) ptr @_ZN4node17AliasedBufferBaseIjN2v811Uint32ArrayEE9ReferenceaSERKj(ptr noundef nonnull align 8 dereferenceable(16) %ref.tmp1, ptr noundef nonnull align 4 dereferenceable(4) %ref.tmp)
  %2 = load i64, ptr %t, align 8
  %div4 = udiv i64 %2, 1000000000
  %and = and i64 %div4, 4294967295
  %conv5 = trunc i64 %and to i32
  store i32 %conv5, ptr %ref.tmp3, align 4
  %3 = load ptr, ptr %receiver.addr, align 8
  %hrtime_buffer_7 = getelementptr inbounds %"class.node::process::BindingData", ptr %3, i32 0, i32 1
  call void @_ZN4node17AliasedBufferBaseIjN2v811Uint32ArrayEEixEm(ptr sret(%"class.node::AliasedBufferBase<unsigned int, v8::Uint32Array>::Reference") align 8 %ref.tmp6, ptr noundef nonnull align 8 dereferenceable(56) %hrtime_buffer_7, i64 noundef 1)
  %call8 = call noundef nonnull align 8 dereferenceable(16) ptr @_ZN4node17AliasedBufferBaseIjN2v811Uint32ArrayEE9ReferenceaSERKj(ptr noundef nonnull align 8 dereferenceable(16) %ref.tmp6, ptr noundef nonnull align 4 dereferenceable(4) %ref.tmp3)
  %4 = load i64, ptr %t, align 8
  %rem = urem i64 %4, 1000000000
  %conv10 = trunc i64 %rem to i32
  store i32 %conv10, ptr %ref.tmp9, align 4
  %5 = load ptr, ptr %receiver.addr, align 8
  %hrtime_buffer_12 = getelementptr inbounds %"class.node::process::BindingData", ptr %5, i32 0, i32 1
  call void @_ZN4node17AliasedBufferBaseIjN2v811Uint32ArrayEEixEm(ptr sret(%"class.node::AliasedBufferBase<unsigned int, v8::Uint32Array>::Reference") align 8 %ref.tmp11, ptr noundef nonnull align 8 dereferenceable(56) %hrtime_buffer_12, i64 noundef 2)
  %call13 = call noundef nonnull align 8 dereferenceable(16) ptr @_ZN4node17AliasedBufferBaseIjN2v811Uint32ArrayEE9ReferenceaSERKj(ptr noundef nonnull align 8 dereferenceable(16) %ref.tmp11, ptr noundef nonnull align 4 dereferenceable(4) %ref.tmp9)
  ret void
}

; Function Attrs: mustprogress nounwind uwtable
define linkonce_odr dso_local noundef ptr @_ZN4node10BaseObject12FromJSObjectINS_7process11BindingDataEEEPT_N2v85LocalINS6_5ValueEEE(ptr %object.coerce) #4 comdat align 2 {
entry:
  %object = alloca %"class.v8::Local", align 8
  %agg.tmp = alloca %"class.v8::Local", align 8
  %coerce.dive = getelementptr inbounds %"class.v8::Local", ptr %object, i32 0, i32 0
  %coerce.dive1 = getelementptr inbounds %"class.v8::LocalBase", ptr %coerce.dive, i32 0, i32 0
  %coerce.dive2 = getelementptr inbounds %"class.v8::IndirectHandleBase", ptr %coerce.dive1, i32 0, i32 0
  store ptr %object.coerce, ptr %coerce.dive2, align 8
  call void @llvm.memcpy.p0.p0.i64(ptr align 8 %agg.tmp, ptr align 8 %object, i64 8, i1 false)
  %coerce.dive3 = getelementptr inbounds %"class.v8::Local", ptr %agg.tmp, i32 0, i32 0
  %coerce.dive4 = getelementptr inbounds %"class.v8::LocalBase", ptr %coerce.dive3, i32 0, i32 0
  %coerce.dive5 = getelementptr inbounds %"class.v8::IndirectHandleBase", ptr %coerce.dive4, i32 0, i32 0
  %0 = load ptr, ptr %coerce.dive5, align 8
  %call = call noundef ptr @_ZN4node10BaseObject12FromJSObjectEN2v85LocalINS1_5ValueEEE(ptr %0)
  ret ptr %call
}

; Function Attrs: mustprogress nounwind uwtable
define dso_local void @_ZN4node7process11BindingData10SlowNumberERKN2v820FunctionCallbackInfoINS2_5ValueEEE(ptr noundef nonnull align 8 dereferenceable(20) %args) #4 align 2 {
entry:
  %this.addr.i.i18 = alloca ptr, align 8
  %location.addr.i.i = alloca ptr, align 8
  %this.addr.i19 = alloca ptr, align 8
  %location.addr.i = alloca ptr, align 8
  %retval.i16 = alloca %"class.v8::LocalBase.257", align 8
  %slot.addr.i17 = alloca ptr, align 8
  %this.addr.i.i = alloca ptr, align 8
  %other.addr.i.i = alloca ptr, align 8
  %retval.i14 = alloca %"class.v8::Local.256", align 8
  %slot.addr.i = alloca ptr, align 8
  %ref.tmp.i = alloca %"class.v8::LocalBase.257", align 8
  %this.addr.i12 = alloca ptr, align 8
  %other.addr.i = alloca ptr, align 8
  %that.i = alloca %"class.v8::Local.256", align 8
  %this.addr.i11 = alloca ptr, align 8
  %retval.i = alloca %"class.v8::Local.256", align 8
  %this.addr.i = alloca ptr, align 8
  %args.addr = alloca ptr, align 8
  %agg.tmp = alloca %"class.v8::Local", align 8
  %agg.tmp1 = alloca %"class.v8::Local.256", align 8
  store ptr %args, ptr %args.addr, align 8
  %0 = load ptr, ptr %args.addr, align 8
  store ptr %0, ptr %this.addr.i, align 8
  %this1.i = load ptr, ptr %this.addr.i, align 8
  %1 = load ptr, ptr %this1.i, align 8
  store ptr %1, ptr %slot.addr.i, align 8
  %2 = load ptr, ptr %slot.addr.i, align 8
  store ptr %2, ptr %slot.addr.i17, align 8
  %3 = load ptr, ptr %slot.addr.i17, align 8
  store ptr %retval.i16, ptr %this.addr.i19, align 8
  store ptr %3, ptr %location.addr.i, align 8
  %this1.i20 = load ptr, ptr %this.addr.i19, align 8
  %4 = load ptr, ptr %location.addr.i, align 8
  store ptr %this1.i20, ptr %this.addr.i.i18, align 8
  store ptr %4, ptr %location.addr.i.i, align 8
  %this1.i.i21 = load ptr, ptr %this.addr.i.i18, align 8
  %5 = load ptr, ptr %location.addr.i.i, align 8
  store ptr %5, ptr %this1.i.i21, align 8
  %6 = load ptr, ptr %retval.i16, align 8
  store ptr %6, ptr %ref.tmp.i, align 8
  store ptr %retval.i14, ptr %this.addr.i.i, align 8
  store ptr %ref.tmp.i, ptr %other.addr.i.i, align 8
  %this1.i.i = load ptr, ptr %this.addr.i.i, align 8
  %7 = load ptr, ptr %other.addr.i.i, align 8
  call void @llvm.memcpy.p0.p0.i64(ptr align 8 %this1.i.i, ptr align 8 %7, i64 8, i1 false)
  %8 = load ptr, ptr %retval.i14, align 8
  store ptr %8, ptr %retval.i, align 8
  %9 = load ptr, ptr %retval.i, align 8
  %coerce.dive = getelementptr inbounds %"class.v8::Local.256", ptr %agg.tmp1, i32 0, i32 0
  %coerce.dive2 = getelementptr inbounds %"class.v8::LocalBase.257", ptr %coerce.dive, i32 0, i32 0
  %coerce.dive3 = getelementptr inbounds %"class.v8::IndirectHandleBase", ptr %coerce.dive2, i32 0, i32 0
  store ptr %9, ptr %coerce.dive3, align 8
  %coerce.dive4 = getelementptr inbounds %"class.v8::Local.256", ptr %agg.tmp1, i32 0, i32 0
  %coerce.dive5 = getelementptr inbounds %"class.v8::LocalBase.257", ptr %coerce.dive4, i32 0, i32 0
  %coerce.dive6 = getelementptr inbounds %"class.v8::IndirectHandleBase", ptr %coerce.dive5, i32 0, i32 0
  %10 = load ptr, ptr %coerce.dive6, align 8
  store ptr %10, ptr %that.i, align 8
  store ptr %agg.tmp, ptr %this.addr.i11, align 8
  %this3.i = load ptr, ptr %this.addr.i11, align 8
  store ptr %this3.i, ptr %this.addr.i12, align 8
  store ptr %that.i, ptr %other.addr.i, align 8
  %this1.i13 = load ptr, ptr %this.addr.i12, align 8
  %11 = load ptr, ptr %other.addr.i, align 8
  call void @llvm.memcpy.p0.p0.i64(ptr align 8 %this1.i13, ptr align 8 %11, i64 8, i1 false)
  %coerce.dive7 = getelementptr inbounds %"class.v8::Local", ptr %agg.tmp, i32 0, i32 0
  %coerce.dive8 = getelementptr inbounds %"class.v8::LocalBase", ptr %coerce.dive7, i32 0, i32 0
  %coerce.dive9 = getelementptr inbounds %"class.v8::IndirectHandleBase", ptr %coerce.dive8, i32 0, i32 0
  %12 = load ptr, ptr %coerce.dive9, align 8
  %call10 = call noundef ptr @_ZN4node10BaseObject12FromJSObjectINS_7process11BindingDataEEEPT_N2v85LocalINS6_5ValueEEE(ptr %12)
  call void @_ZN4node7process11BindingData10NumberImplEPS1_(ptr noundef %call10)
  ret void
}