; Function Attrs: mustprogress nounwind uwtable
define dso_local void @_ZN4node7process11BindingData10SlowNumberERKN2v820FunctionCallbackInfoINS2_5ValueEEE(ptr nocapture noundef nonnull readonly align 8 dereferenceable(20) %args) #3 align 2 {
entry:
  %0 = load ptr, ptr %args, align 8
  %1 = load i64, ptr %0, align 8
  %sub.i26.i.i = add i64 %1, -1
  %2 = inttoptr i64 %sub.i26.i.i to ptr
  %3 = load i64, ptr %2, align 8
  %sub.i.i.i = add i64 %3, 11
  %4 = inttoptr i64 %sub.i.i.i to ptr
  %5 = load i16, ptr %4, align 2
  %conv.i.i.i = zext i16 %5 to i32
  %cmp.i.i.i = icmp eq i16 %5, 1040
  %sub.i30.i.i = add nsw i32 %conv.i.i.i, -1057
  %cmp1.i.i.i = icmp ult i32 %sub.i30.i.i, 1002
  %6 = select i1 %cmp.i.i.i, i1 true, i1 %cmp1.i.i.i
  br i1 %6, label %if.then.i.i.i, label %if.end.i.i.i

if.then.i.i.i:                                    ; preds = %entry
  %sub.i.i.i.i = add i64 %1, 31
  %7 = inttoptr i64 %sub.i.i.i.i to ptr
  %8 = load i64, ptr %7, align 8
  %9 = inttoptr i64 %8 to ptr
  br label %_ZN4node10BaseObject12FromJSObjectINS_7process11BindingDataEEEPT_N2v85LocalINS6_5ValueEEE.exit

if.end.i.i.i:                                     ; preds = %entry
  %call7.i.i.i = tail call noundef ptr @_ZN2v86Object38SlowGetAlignedPointerFromInternalFieldEi(ptr noundef nonnull align 1 dereferenceable(1) %0, i32 noundef 1) #25
  br label %_ZN4node10BaseObject12FromJSObjectINS_7process11BindingDataEEEPT_N2v85LocalINS6_5ValueEEE.exit

_ZN4node10BaseObject12FromJSObjectINS_7process11BindingDataEEEPT_N2v85LocalINS6_5ValueEEE.exit: ; preds = %if.then.i.i.i, %if.end.i.i.i
  %retval.i11.0.i.i = phi ptr [ %9, %if.then.i.i.i ], [ %call7.i.i.i, %if.end.i.i.i ]
  %call.i = tail call i64 @uv_hrtime() #25
  %div.i = udiv i64 %call.i, 1000000000
  %shr.i = lshr i64 %div.i, 32
  %conv.i = trunc i64 %shr.i to i32
  %buffer_.i.i.i = getelementptr inbounds i8, ptr %retval.i11.0.i.i, i64 72
  %10 = load ptr, ptr %buffer_.i.i.i, align 8
  store i32 %conv.i, ptr %10, align 4
  %conv5.i = trunc i64 %div.i to i32
  %11 = load ptr, ptr %buffer_.i.i.i, align 8
  %arrayidx.i.i8.i = getelementptr inbounds i8, ptr %11, i64 4
  store i32 %conv5.i, ptr %arrayidx.i.i8.i, align 4
  %rem.i = urem i64 %call.i, 1000000000
  %conv10.i = trunc i64 %rem.i to i32
  %12 = load ptr, ptr %buffer_.i.i.i, align 8
  %arrayidx.i.i12.i = getelementptr inbounds i8, ptr %12, i64 8
  store i32 %conv10.i, ptr %arrayidx.i.i12.i, align 4
  ret void
}